target datalayout = "e-m:e-p270:32:32-p271:32:32-p272:64:64-i64:64-i128:128-f80:128-n8:16:32:64-S128"
target triple = "x86_64-pc-linux-gnu"

%struct.job_record = type { i32, ptr, ptr, ptr, ptr, i16, i32, i32, i32, ptr, i32, ptr, ptr, i16, ptr, double, i64, ptr, ptr, ptr, ptr, ptr, ptr, i32, ptr, i32, i64, i64, i32, i32, ptr, i16, i64, i64, i8, i32, ptr, ptr, ptr, ptr, ptr, ptr, ptr, ptr, i32, ptr, ptr, i32, ptr, i32, ptr, i32, ptr, i32, ptr, ptr, ptr, ptr, ptr, ptr, i32, i16, i64, ptr, ptr, ptr, ptr, %struct.acct_policy_limit_set_t, i16, ptr, ptr, ptr, ptr, ptr, i32, ptr, ptr, ptr, ptr, ptr, i32, i32, ptr, ptr, ptr, i16, ptr, ptr, i8, ptr, ptr, i64, i64, i8, i32, i32, i8, i32, ptr, i32, i64, i32, ptr, ptr, ptr, i8, i16, i64, i32, ptr, ptr, ptr, ptr, ptr, i16, i32, ptr, ptr, ptr, ptr, i32, ptr, i32, i16, i64, ptr, i32, i32, ptr, i64, ptr, ptr, i64, i32, i32, i64, i32, i32, ptr, ptr, ptr, ptr, ptr, ptr, ptr, ptr, ptr, ptr, ptr, ptr, i32, ptr, i16, i16, i16, i16, ptr, i32, i32, i8, i64 }
%struct.acct_policy_limit_set_t = type { i16, i16, ptr }

@.str.34 = private unnamed_addr constant [33 x i8] c"hostlist_create error for %s: %m\00", align 1
@.str.35 = private unnamed_addr constant [23 x i8] c"Invalid node %s in %pJ\00", align 1
@.str.36 = private unnamed_addr constant [36 x i8] c"Node count mismatch for %pJ (%u,%u)\00", align 1

; Function Attrs: nounwind uwtable
define dso_local void @build_node_details(ptr noundef %0, i1 noundef zeroext %1) #0 {
  %3 = alloca ptr, align 8
  %4 = alloca i8, align 1
  %5 = alloca ptr, align 8
  %6 = alloca ptr, align 8
  %7 = alloca ptr, align 8
  %8 = alloca i32, align 4
  %9 = alloca i32, align 4
  store ptr %0, ptr %3, align 8
  %10 = zext i1 %1 to i8
  store i8 %10, ptr %4, align 1
  call void @llvm.lifetime.start.p0(i64 8, ptr %5) #8
  store ptr null, ptr %5, align 8
  call void @llvm.lifetime.start.p0(i64 8, ptr %6) #8
  call void @llvm.lifetime.start.p0(i64 8, ptr %7) #8
  call void @llvm.lifetime.start.p0(i64 4, ptr %8) #8
  store i32 0, ptr %8, align 4
  %11 = load ptr, ptr %3, align 8
  %12 = getelementptr inbounds nuw %struct.job_record, ptr %11, i32 0, i32 77
  %13 = load ptr, ptr %12, align 8
  %14 = icmp eq ptr %13, null
  br i1 %14, label %20, label %15

15:                                               ; preds = %2
  %16 = load ptr, ptr %3, align 8
  %17 = getelementptr inbounds nuw %struct.job_record, ptr %16, i32 0, i32 75
  %18 = load ptr, ptr %17, align 8
  %19 = icmp eq ptr %18, null
  br i1 %19, label %20, label %23

20:                                               ; preds = %15, %2
  %21 = load ptr, ptr %3, align 8
  %22 = getelementptr inbounds nuw %struct.job_record, ptr %21, i32 0, i32 80
  store i32 0, ptr %22, align 8
  store i32 1, ptr %9, align 4
  br label %89

23:                                               ; preds = %15
  %24 = load ptr, ptr %3, align 8
  %25 = getelementptr inbounds nuw %struct.job_record, ptr %24, i32 0, i32 75
  %26 = load ptr, ptr %25, align 8
  %27 = call ptr @hostlist_create(ptr noundef %26)
  store ptr %27, ptr %5, align 8
  %28 = icmp eq ptr %27, null
  br i1 %28, label %29, label %33

29:                                               ; preds = %23
  %30 = load ptr, ptr %3, align 8
  %31 = getelementptr inbounds nuw %struct.job_record, ptr %30, i32 0, i32 75
  %32 = load ptr, ptr %31, align 8
  call void (ptr, ...) @fatal(ptr noundef @.str.34, ptr noundef %32) #9
  unreachable

33:                                               ; preds = %23
  %34 = load ptr, ptr %5, align 8
  %35 = call i32 @hostlist_count(ptr noundef %34)
  %36 = load ptr, ptr %3, align 8
  %37 = getelementptr inbounds nuw %struct.job_record, ptr %36, i32 0, i32 80
  store i32 %35, ptr %37, align 8
  %38 = load ptr, ptr %3, align 8
  %39 = getelementptr inbounds nuw %struct.job_record, ptr %38, i32 0, i32 137
  store i32 %35, ptr %39, align 4
  %40 = load ptr, ptr %3, align 8
  %41 = getelementptr inbounds nuw %struct.job_record, ptr %40, i32 0, i32 14
  call void @slurm_xfree(ptr noundef %41)
  br label %42

42:                                               ; preds = %72, %33
  %43 = load ptr, ptr %5, align 8
  %44 = call ptr @hostlist_shift(ptr noundef %43)
  store ptr %44, ptr %7, align 8
  %45 = icmp ne ptr %44, null
  br i1 %45, label %46, label %74

46:                                               ; preds = %42
  %47 = load ptr, ptr %7, align 8
  %48 = call ptr @find_node_record(ptr noundef %47)
  store ptr %48, ptr %6, align 8
  %49 = icmp ne ptr %48, null
  br i1 %49, label %50, label %53

50:                                               ; preds = %46
  %51 = load i32, ptr %8, align 4
  %52 = add nsw i32 %51, 1
  store i32 %52, ptr %8, align 4
  br label %57

53:                                               ; preds = %46
  %54 = load ptr, ptr %7, align 8
  %55 = load ptr, ptr %3, align 8
  %56 = call i32 (ptr, ...) @error(ptr noundef @.str.35, ptr noundef %54, ptr noundef %55)
  br label %57

57:                                               ; preds = %53, %50
  %58 = load ptr, ptr %3, align 8
  %59 = getelementptr inbounds nuw %struct.job_record, ptr %58, i32 0, i32 14
  %60 = load ptr, ptr %59, align 8
  %61 = icmp ne ptr %60, null
  br i1 %61, label %72, label %62

62:                                               ; preds = %57
  %63 = load ptr, ptr %3, align 8
  %64 = getelementptr inbounds nuw %struct.job_record, ptr %63, i32 0, i32 12
  %65 = load ptr, ptr %64, align 8
  %66 = icmp ne ptr %65, null
  br i1 %66, label %72, label %67

67:                                               ; preds = %62
  %68 = load ptr, ptr %7, align 8
  %69 = call ptr @xstrdup(ptr noundef %68)
  %70 = load ptr, ptr %3, align 8
  %71 = getelementptr inbounds nuw %struct.job_record, ptr %70, i32 0, i32 14
  store ptr %69, ptr %71, align 8
  br label %72

72:                                               ; preds = %67, %62, %57
  %73 = load ptr, ptr %7, align 8
  call void @free(ptr noundef %73) #8
  br label %42, !llvm.loop !40

74:                                               ; preds = %42
  %75 = load ptr, ptr %5, align 8
  call void @hostlist_destroy(ptr noundef %75)
  %76 = load ptr, ptr %3, align 8
  %77 = getelementptr inbounds nuw %struct.job_record, ptr %76, i32 0, i32 80
  %78 = load i32, ptr %77, align 8
  %79 = load i32, ptr %8, align 4
  %80 = icmp ne i32 %78, %79
  br i1 %80, label %81, label %88

81:                                               ; preds = %74
  %82 = load ptr, ptr %3, align 8
  %83 = load ptr, ptr %3, align 8
  %84 = getelementptr inbounds nuw %struct.job_record, ptr %83, i32 0, i32 80
  %85 = load i32, ptr %84, align 8
  %86 = load i32, ptr %8, align 4
  %87 = call i32 (ptr, ...) @error(ptr noundef @.str.36, ptr noundef %82, i32 noundef %85, i32 noundef %86)
  br label %88

88:                                               ; preds = %81, %74
  store i32 0, ptr %9, align 4
  br label %89

89:                                               ; preds = %88, %20
  call void @llvm.lifetime.end.p0(i64 4, ptr %8) #8
  call void @llvm.lifetime.end.p0(i64 8, ptr %7) #8
  call void @llvm.lifetime.end.p0(i64 8, ptr %6) #8
  call void @llvm.lifetime.end.p0(i64 8, ptr %5) #8
  %90 = load i32, ptr %9, align 4
  switch i32 %90, label %92 [
    i32 0, label %91
    i32 1, label %91
  ]

91:                                               ; preds = %89, %89
  ret void

92:                                               ; preds = %89
  unreachable
}