; Function Attrs: nounwind uwtable
define dso_local void @build_node_details(ptr noundef %0, i1 zeroext %1) local_unnamed_addr #0 {
  %3 = getelementptr inbounds nuw i8, ptr %0, i64 584
  %4 = load ptr, ptr %3, align 8
  %5 = icmp eq ptr %4, null
  br i1 %5, label %10, label %6

6:                                                ; preds = %2
  %7 = getelementptr inbounds nuw i8, ptr %0, i64 568
  %8 = load ptr, ptr %7, align 8
  %9 = icmp eq ptr %8, null
  br i1 %9, label %10, label %12

10:                                               ; preds = %6, %2
  %11 = getelementptr inbounds nuw i8, ptr %0, i64 608
  store i32 0, ptr %11, align 8
  br label %42

12:                                               ; preds = %6
  %13 = tail call ptr @hostlist_create(ptr noundef nonnull %8) #14
  %14 = icmp eq ptr %13, null
  br i1 %14, label %15, label %17

15:                                               ; preds = %12
  %16 = load ptr, ptr %7, align 8
  tail call void (ptr, ...) @fatal(ptr noundef nonnull @.str.34, ptr noundef %16) #15
  unreachable

17:                                               ; preds = %12
  %18 = tail call i32 @hostlist_count(ptr noundef nonnull %13) #14
  %19 = getelementptr inbounds nuw i8, ptr %0, i64 608
  store i32 %18, ptr %19, align 8
  %20 = getelementptr inbounds nuw i8, ptr %0, i64 996
  store i32 %18, ptr %20, align 4
  %21 = getelementptr inbounds nuw i8, ptr %0, i64 96
  tail call void @slurm_xfree(ptr noundef nonnull %21) #14
  %22 = tail call ptr @hostlist_shift(ptr noundef nonnull %13) #14
  %.not32 = icmp eq ptr %22, null
  br i1 %.not32, label %._crit_edge, label %.lr.ph

.lr.ph:                                           ; preds = %17
  %23 = getelementptr inbounds nuw i8, ptr %0, i64 80
  br label %24

24:                                               ; preds = %.lr.ph, %37
  %25 = phi ptr [ %22, %.lr.ph ], [ %38, %37 ]
  %.033 = phi i32 [ 0, %.lr.ph ], [ %.1, %37 ]
  %26 = tail call ptr @find_node_record(ptr noundef nonnull %25) #14
  %.not29 = icmp eq ptr %26, null
  br i1 %.not29, label %29, label %27

27:                                               ; preds = %24
  %28 = add nsw i32 %.033, 1
  br label %31

29:                                               ; preds = %24
  %30 = tail call i32 (ptr, ...) @error(ptr noundef nonnull @.str.35, ptr noundef nonnull %25, ptr noundef nonnull %0) #14
  br label %31

31:                                               ; preds = %29, %27
  %.1 = phi i32 [ %28, %27 ], [ %.033, %29 ]
  %32 = load ptr, ptr %21, align 8
  %.not30 = icmp eq ptr %32, null
  br i1 %.not30, label %33, label %37

33:                                               ; preds = %31
  %34 = load ptr, ptr %23, align 8
  %.not31 = icmp eq ptr %34, null
  br i1 %.not31, label %35, label %37

35:                                               ; preds = %33
  %36 = tail call ptr @xstrdup(ptr noundef nonnull %25) #14
  store ptr %36, ptr %21, align 8
  br label %37

37:                                               ; preds = %35, %33, %31
  tail call void @free(ptr noundef nonnull %25) #14
  %38 = tail call ptr @hostlist_shift(ptr noundef nonnull %13) #14
  %.not = icmp eq ptr %38, null
  br i1 %.not, label %._crit_edge, label %24, !llvm.loop !45

._crit_edge:                                      ; preds = %37, %17
  %.0.lcssa = phi i32 [ 0, %17 ], [ %.1, %37 ]
  tail call void @hostlist_destroy(ptr noundef nonnull %13) #14
  %39 = load i32, ptr %19, align 8
  %.not28 = icmp eq i32 %39, %.0.lcssa
  br i1 %.not28, label %42, label %40

40:                                               ; preds = %._crit_edge
  %41 = tail call i32 (ptr, ...) @error(ptr noundef nonnull @.str.36, ptr noundef nonnull %0, i32 noundef %39, i32 noundef %.0.lcssa) #14
  br label %42

42:                                               ; preds = %._crit_edge, %40, %10
  ret void
}